; ModuleID = 'source-C-CXX/28/1270.c'
source_filename = "source-C-CXX/28/1270.c"
target datalayout = "e-m:e-p270:32:32-p271:32:32-p272:64:64-i64:64-f80:128-n8:16:32:64-S128"
target triple = "x86_64-pc-linux-gnu"

@.str = private unnamed_addr constant [3 x i8] c"%d\00", align 1
@.str.1 = private unnamed_addr constant [7 x i8] c"%.3lf\0A\00", align 1

; Function Attrs: nofree nounwind sspstrong uwtable
define dso_local i32 @main() local_unnamed_addr #0 {
  %1 = alloca i32, align 4
  %2 = bitcast i32* %1 to i8*
  call void @llvm.lifetime.start.p0i8(i64 4, i8* nonnull %2) #4
  %3 = call i32 (i8*, ...) @__isoc99_scanf(i8* getelementptr inbounds ([3 x i8], [3 x i8]* @.str, i64 0, i64 0), i32* nonnull %1)
  %4 = load i32, i32* %1, align 4, !tbaa !5
  %5 = sext i32 %4 to i64
  %6 = shl nsw i64 %5, 2
  %7 = call noalias align 16 i8* @malloc(i64 %6) #4
  %8 = bitcast i8* %7 to i32*
  %9 = icmp sgt i32 %4, 0
  br i1 %9, label %12, label %65

10:                                               ; preds = %12
  %11 = icmp sgt i32 %17, 0
  br i1 %11, label %20, label %65

12:                                               ; preds = %0, %12
  %13 = phi i64 [ %16, %12 ], [ 0, %0 ]
  %14 = getelementptr inbounds i32, i32* %8, i64 %13
  %15 = call i32 (i8*, ...) @__isoc99_scanf(i8* getelementptr inbounds ([3 x i8], [3 x i8]* @.str, i64 0, i64 0), i32* %14)
  %16 = add nuw nsw i64 %13, 1
  %17 = load i32, i32* %1, align 4, !tbaa !5
  %18 = sext i32 %17 to i64
  %19 = icmp slt i64 %16, %18
  br i1 %19, label %12, label %10, !llvm.loop !9

20:                                               ; preds = %10, %58
  %21 = phi i64 [ %61, %58 ], [ 0, %10 ]
  %22 = getelementptr inbounds i32, i32* %8, i64 %21
  %23 = load i32, i32* %22, align 4, !tbaa !5
  %24 = icmp sgt i32 %23, 0
  br i1 %24, label %25, label %58

25:                                               ; preds = %20
  %26 = and i32 %23, 1
  %27 = icmp eq i32 %23, 1
  br i1 %27, label %47, label %28

28:                                               ; preds = %25
  %29 = and i32 %23, -2
  br label %30

30:                                               ; preds = %30, %28
  %31 = phi double [ 0.000000e+00, %28 ], [ %43, %30 ]
  %32 = phi i32 [ 1, %28 ], [ %39, %30 ]
  %33 = phi i32 [ 2, %28 ], [ %44, %30 ]
  %34 = phi i32 [ %29, %28 ], [ %45, %30 ]
  %35 = sitofp i32 %33 to double
  %36 = sitofp i32 %32 to double
  %37 = fdiv double %35, %36
  %38 = fadd double %31, %37
  %39 = add nsw i32 %32, %33
  %40 = sitofp i32 %39 to double
  %41 = sitofp i32 %33 to double
  %42 = fdiv double %40, %41
  %43 = fadd double %38, %42
  %44 = add nsw i32 %33, %39
  %45 = add i32 %34, -2
  %46 = icmp eq i32 %45, 0
  br i1 %46, label %47, label %30, !llvm.loop !11

47:                                               ; preds = %30, %25
  %48 = phi double [ undef, %25 ], [ %43, %30 ]
  %49 = phi double [ 0.000000e+00, %25 ], [ %43, %30 ]
  %50 = phi i32 [ 1, %25 ], [ %39, %30 ]
  %51 = phi i32 [ 2, %25 ], [ %44, %30 ]
  %52 = icmp eq i32 %26, 0
  br i1 %52, label %58, label %53

53:                                               ; preds = %47
  %54 = sitofp i32 %51 to double
  %55 = sitofp i32 %50 to double
  %56 = fdiv double %54, %55
  %57 = fadd double %49, %56
  br label %58

58:                                               ; preds = %53, %47, %20
  %59 = phi double [ 0.000000e+00, %20 ], [ %48, %47 ], [ %57, %53 ]
  %60 = call i32 (i8*, ...) @printf(i8* nonnull dereferenceable(1) getelementptr inbounds ([7 x i8], [7 x i8]* @.str.1, i64 0, i64 0), double %59)
  %61 = add nuw nsw i64 %21, 1
  %62 = load i32, i32* %1, align 4, !tbaa !5
  %63 = sext i32 %62 to i64
  %64 = icmp slt i64 %61, %63
  br i1 %64, label %20, label %65, !llvm.loop !12

65:                                               ; preds = %58, %0, %10
  call void @llvm.lifetime.end.p0i8(i64 4, i8* nonnull %2) #4
  ret i32 0
}

; Function Attrs: argmemonly mustprogress nofree nosync nounwind willreturn
declare void @llvm.lifetime.start.p0i8(i64 immarg, i8* nocapture) #1

; Function Attrs: nofree nounwind
declare noundef i32 @__isoc99_scanf(i8* nocapture noundef readonly, ...) local_unnamed_addr #2

; Function Attrs: inaccessiblememonly mustprogress nofree nounwind willreturn
declare noalias noundef align 16 i8* @malloc(i64 noundef) local_unnamed_addr #3

; Function Attrs: nofree nounwind
declare noundef i32 @printf(i8* nocapture noundef readonly, ...) local_unnamed_addr #2

; Function Attrs: argmemonly mustprogress nofree nosync nounwind willreturn
declare void @llvm.lifetime.end.p0i8(i64 immarg, i8* nocapture) #1


!llvm.module.flags = !{!0, !1, !2, !3}
!llvm.ident = !{!4}

!0 = !{i32 1, !"wchar_size", i32 4}
!1 = !{i32 7, !"PIC Level", i32 2}
!2 = !{i32 7, !"PIE Level", i32 2}
!3 = !{i32 7, !"uwtable", i32 1}
!4 = !{!"clang version 13.0.0"}
!5 = !{!6, !6, i64 0}
!6 = !{!"int", !7, i64 0}
!7 = !{!"omnipotent char", !8, i64 0}
!8 = !{!"Simple C/C++ TBAA"}
!9 = distinct !{!9, !10}
!10 = !{!"llvm.loop.mustprogress"}
!11 = distinct !{!11, !10}
!12 = distinct !{!12, !10}
